target datalayout = "e-m:e-p270:32:32-p271:32:32-p272:64:64-i64:64-i128:128-f80:128-n8:16:32:64-S128"
target triple = "x86_64-unknown-linux-gnu"

%struct.QEMUSGList = type { ptr, i32, i32, i64, ptr, ptr }

; Function Attrs: nounwind sspstrong uwtable
define dso_local void @qemu_sglist_destroy(ptr noundef %qsg) #0 {
entry:
  %qsg.addr = alloca ptr, align 8
  store ptr %qsg, ptr %qsg.addr, align 8
  %0 = load ptr, ptr %qsg.addr, align 8
  %dev = getelementptr inbounds %struct.QEMUSGList, ptr %0, i32 0, i32 4
  %1 = load ptr, ptr %dev, align 8
  call void @object_unref(ptr noundef %1)
  %2 = load ptr, ptr %qsg.addr, align 8
  %sg = getelementptr inbounds %struct.QEMUSGList, ptr %2, i32 0, i32 0
  %3 = load ptr, ptr %sg, align 8
  call void @g_free(ptr noundef %3)
  %4 = load ptr, ptr %qsg.addr, align 8
  call void @llvm.memset.p0.i64(ptr align 8 %4, i8 0, i64 40, i1 false)
  ret void
}