; Function Attrs: nounwind sspstrong uwtable
define dso_local void @qemu_sglist_destroy(ptr noundef captures(none) initializes((8, 24), (32, 40)) %qsg) local_unnamed_addr #0 {
entry:
  %dev = getelementptr inbounds nuw i8, ptr %qsg, i64 24
  %0 = load ptr, ptr %dev, align 8
  tail call void @object_unref(ptr noundef %0) #10
  %1 = load ptr, ptr %qsg, align 8
  tail call void @g_free(ptr noundef %1) #10
  tail call void @llvm.memset.p0.i64(ptr noundef nonnull align 8 dereferenceable(40) %qsg, i8 0, i64 40, i1 false)
  ret void
}